; Function Attrs: mustprogress uwtable
define hidden void @_ZN7nanogui10RenderPass15set_clear_colorEmRKNS_5ColorE(ptr nocapture noundef nonnull readonly align 8 dereferenceable(173) %0, i64 noundef %1, ptr nocapture noundef nonnull readonly align 4 dereferenceable(16) %2) local_unnamed_addr #5 align 2 {
  %4 = getelementptr inbounds i8, ptr %0, i64 48
  %5 = getelementptr inbounds i8, ptr %0, i64 56
  %6 = load ptr, ptr %5, align 8
  %7 = load ptr, ptr %4, align 8
  %8 = ptrtoint ptr %6 to i64
  %9 = ptrtoint ptr %7 to i64
  %10 = sub i64 %8, %9
  %11 = ashr exact i64 %10, 4
  %.not.i.i = icmp ugt i64 %11, %1
  br i1 %.not.i.i, label %_ZNSt6vectorIN7nanogui5ColorESaIS1_EE2atEm.exit, label %12

12:                                               ; preds = %3
  tail call void (ptr, ...) @_ZSt24__throw_out_of_range_fmtPKcz(ptr noundef nonnull @.str.16, i64 noundef %1, i64 noundef %11) #16
  unreachable

_ZNSt6vectorIN7nanogui5ColorESaIS1_EE2atEm.exit:  ; preds = %3
  %13 = getelementptr inbounds %"class.nanogui::Color", ptr %7, i64 %1
  tail call void @llvm.memcpy.p0.p0.i64(ptr noundef nonnull align 4 dereferenceable(16) %13, ptr noundef nonnull align 4 dereferenceable(16) %2, i64 16, i1 false)
  ret void
}